; Function Attrs: nounwind uwtable
define ptr @l_Lean_Compiler_LCNF_JoinPointCommonArgs_reduce_goAnalyzeFunDecl___lambda__1___boxed(ptr noundef %0, ptr noundef %1, ptr noundef %2, ptr noundef %3, ptr noundef %4, ptr noundef %5, ptr noundef %6, ptr noundef %7, ptr noundef %8, ptr noundef %9) #1 {
  %11 = getelementptr inbounds nuw i8, ptr %0, i64 40
  %12 = load ptr, ptr %11, align 8, !tbaa !4
  %13 = ptrtoint ptr %12 to i64
  %14 = and i64 %13, 1
  %.not.i12 = icmp eq i64 %14, 0
  br i1 %.not.i12, label %15, label %lean_inc.exit.i

15:                                               ; preds = %10
  %.val.i.i = load i32, ptr %12, align 4, !tbaa !8
  %16 = icmp sgt i32 %.val.i.i, 0
  br i1 %16, label %17, label %19, !prof !11

17:                                               ; preds = %15
  %18 = add nuw i32 %.val.i.i, 1
  store i32 %18, ptr %12, align 4, !tbaa !8
  br label %lean_inc.exit.i

19:                                               ; preds = %15
  %.not.i13.i = icmp eq i32 %.val.i.i, 0
  br i1 %.not.i13.i, label %lean_inc.exit.i, label %20

20:                                               ; preds = %19
  tail call void @lean_inc_ref_cold(ptr noundef nonnull %12) #5
  br label %lean_inc.exit.i

lean_inc.exit.i:                                  ; preds = %20, %19, %17, %10
  %21 = ptrtoint ptr %0 to i64
  %22 = and i64 %21, 1
  %.not14.i = icmp eq i64 %22, 0
  br i1 %.not14.i, label %23, label %l_Lean_Compiler_LCNF_JoinPointCommonArgs_reduce_goAnalyzeFunDecl___lambda__1.exit

23:                                               ; preds = %lean_inc.exit.i
  %24 = load i32, ptr %0, align 4, !tbaa !8
  %25 = icmp sgt i32 %24, 1
  br i1 %25, label %26, label %28, !prof !11

26:                                               ; preds = %23
  %27 = add nsw i32 %24, -1
  store i32 %27, ptr %0, align 4, !tbaa !8
  br label %l_Lean_Compiler_LCNF_JoinPointCommonArgs_reduce_goAnalyzeFunDecl___lambda__1.exit

28:                                               ; preds = %23
  %.not.i.i = icmp eq i32 %24, 0
  br i1 %.not.i.i, label %l_Lean_Compiler_LCNF_JoinPointCommonArgs_reduce_goAnalyzeFunDecl___lambda__1.exit, label %29

29:                                               ; preds = %28
  tail call void @lean_dec_ref_cold(ptr noundef nonnull %0) #5
  br label %l_Lean_Compiler_LCNF_JoinPointCommonArgs_reduce_goAnalyzeFunDecl___lambda__1.exit

l_Lean_Compiler_LCNF_JoinPointCommonArgs_reduce_goAnalyzeFunDecl___lambda__1.exit: ; preds = %lean_inc.exit.i, %26, %28, %29
  %30 = tail call ptr @l_Lean_Compiler_LCNF_JoinPointCommonArgs_reduce_goAnalyze(ptr noundef %12, ptr noundef %2, ptr noundef %3, ptr noundef %4, ptr noundef %5, ptr noundef %6, ptr noundef %7, ptr noundef %8, ptr noundef %9)
  %31 = ptrtoint ptr %1 to i64
  %32 = and i64 %31, 1
  %.not = icmp eq i64 %32, 0
  br i1 %.not, label %33, label %lean_dec.exit

33:                                               ; preds = %l_Lean_Compiler_LCNF_JoinPointCommonArgs_reduce_goAnalyzeFunDecl___lambda__1.exit
  %34 = load i32, ptr %1, align 4, !tbaa !8
  %35 = icmp sgt i32 %34, 1
  br i1 %35, label %36, label %38, !prof !11

36:                                               ; preds = %33
  %37 = add nsw i32 %34, -1
  store i32 %37, ptr %1, align 4, !tbaa !8
  br label %lean_dec.exit

38:                                               ; preds = %33
  %.not.i = icmp eq i32 %34, 0
  br i1 %.not.i, label %lean_dec.exit, label %39

39:                                               ; preds = %38
  tail call void @lean_dec_ref_cold(ptr noundef nonnull %1) #5
  br label %lean_dec.exit

lean_dec.exit:                                    ; preds = %39, %38, %36, %l_Lean_Compiler_LCNF_JoinPointCommonArgs_reduce_goAnalyzeFunDecl___lambda__1.exit
  ret ptr %30
}